target datalayout = "e-m:e-p270:32:32-p271:32:32-p272:64:64-i64:64-i128:128-f80:128-n8:16:32:64-S128"
target triple = "x86_64-pc-linux-gnu"

%struct.dt_gpx_t = type { ptr, ptr, ptr, i32, i32, i32, i32, ptr }
%struct.dt_gpx_track_point_t = type { double, double, double, ptr, i32 }
%struct.dt_gpx_track_segment_t = type { i32, ptr, ptr, ptr, ptr, i32 }
%struct._GList = type { ptr, ptr, ptr }
%struct.dt_geo_map_display_point_t = type { float, float }

; Function Attrs: nounwind uwtable
define ptr @dt_gpx_get_trkpts(ptr noundef %0, i32 noundef %1) #0 {
  %3 = alloca ptr, align 8
  %4 = alloca ptr, align 8
  %5 = alloca i32, align 4
  %6 = alloca ptr, align 8
  %7 = alloca ptr, align 8
  %8 = alloca i32, align 4
  %9 = alloca ptr, align 8
  %10 = alloca ptr, align 8
  %11 = alloca ptr, align 8
  %12 = alloca ptr, align 8
  %13 = alloca ptr, align 8
  store ptr %0, ptr %4, align 8, !tbaa !17
  store i32 %1, ptr %5, align 4, !tbaa !13
  %14 = load ptr, ptr %4, align 8, !tbaa !17
  %15 = icmp eq ptr %14, null
  br i1 %15, label %16, label %17

16:                                               ; preds = %2
  store ptr null, ptr %3, align 8
  br label %95

17:                                               ; preds = %2
  call void @llvm.lifetime.start.p0(i64 8, ptr %6) #10
  store ptr null, ptr %6, align 8, !tbaa !77
  call void @llvm.lifetime.start.p0(i64 8, ptr %7) #10
  %18 = load ptr, ptr %4, align 8, !tbaa !17
  %19 = getelementptr inbounds nuw %struct.dt_gpx_t, ptr %18, i32 0, i32 1
  %20 = load ptr, ptr %19, align 8, !tbaa !26
  %21 = load i32, ptr %5, align 4, !tbaa !13
  %22 = call ptr @g_list_nth(ptr noundef %20, i32 noundef %21)
  store ptr %22, ptr %7, align 8, !tbaa !77
  %23 = load ptr, ptr %7, align 8, !tbaa !77
  %24 = icmp ne ptr %23, null
  br i1 %24, label %27, label %25

25:                                               ; preds = %17
  %26 = load ptr, ptr %6, align 8, !tbaa !77
  store ptr %26, ptr %3, align 8
  store i32 1, ptr %8, align 4
  br label %94

27:                                               ; preds = %17
  call void @llvm.lifetime.start.p0(i64 8, ptr %9) #10
  %28 = load ptr, ptr %7, align 8, !tbaa !77
  %29 = getelementptr inbounds nuw %struct._GList, ptr %28, i32 0, i32 0
  %30 = load ptr, ptr %29, align 8, !tbaa !78
  store ptr %30, ptr %9, align 8, !tbaa !69
  call void @llvm.lifetime.start.p0(i64 8, ptr %10) #10
  %31 = load ptr, ptr %4, align 8, !tbaa !17
  %32 = getelementptr inbounds nuw %struct.dt_gpx_t, ptr %31, i32 0, i32 0
  %33 = load ptr, ptr %32, align 8, !tbaa !22
  %34 = load ptr, ptr %9, align 8, !tbaa !69
  %35 = getelementptr inbounds nuw %struct.dt_gpx_track_segment_t, ptr %34, i32 0, i32 4
  %36 = load ptr, ptr %35, align 8, !tbaa !92
  %37 = call ptr @g_list_find(ptr noundef %33, ptr noundef %36)
  store ptr %37, ptr %10, align 8, !tbaa !77
  %38 = load ptr, ptr %10, align 8, !tbaa !77
  %39 = icmp ne ptr %38, null
  br i1 %39, label %42, label %40

40:                                               ; preds = %27
  %41 = load ptr, ptr %6, align 8, !tbaa !77
  store ptr %41, ptr %3, align 8
  store i32 1, ptr %8, align 4
  br label %93

42:                                               ; preds = %27
  call void @llvm.lifetime.start.p0(i64 8, ptr %11) #10
  %43 = load ptr, ptr %10, align 8, !tbaa !77
  store ptr %43, ptr %11, align 8, !tbaa !77
  br label %44

44:                                               ; preds = %87, %42
  %45 = load ptr, ptr %11, align 8, !tbaa !77
  %46 = icmp ne ptr %45, null
  br i1 %46, label %48, label %47

47:                                               ; preds = %44
  store i32 2, ptr %8, align 4
  br label %89

48:                                               ; preds = %44
  call void @llvm.lifetime.start.p0(i64 8, ptr %12) #10
  %49 = load ptr, ptr %11, align 8, !tbaa !77
  %50 = getelementptr inbounds nuw %struct._GList, ptr %49, i32 0, i32 0
  %51 = load ptr, ptr %50, align 8, !tbaa !78
  store ptr %51, ptr %12, align 8, !tbaa !66
  %52 = load ptr, ptr %12, align 8, !tbaa !66
  %53 = getelementptr inbounds nuw %struct.dt_gpx_track_point_t, ptr %52, i32 0, i32 4
  %54 = load i32, ptr %53, align 8, !tbaa !93
  %55 = load i32, ptr %5, align 4, !tbaa !13
  %56 = icmp ne i32 %54, %55
  br i1 %56, label %57, label %59

57:                                               ; preds = %48
  %58 = load ptr, ptr %6, align 8, !tbaa !77
  store ptr %58, ptr %3, align 8
  store i32 1, ptr %8, align 4
  br label %76

59:                                               ; preds = %48
  call void @llvm.lifetime.start.p0(i64 8, ptr %13) #10
  %60 = call noalias ptr @g_malloc0(i64 noundef 8) #11
  store ptr %60, ptr %13, align 8, !tbaa !94
  %61 = load ptr, ptr %12, align 8, !tbaa !66
  %62 = getelementptr inbounds nuw %struct.dt_gpx_track_point_t, ptr %61, i32 0, i32 1
  %63 = load double, ptr %62, align 8, !tbaa !84
  %64 = fptrunc reassoc nsz arcp contract afn double %63 to float
  %65 = load ptr, ptr %13, align 8, !tbaa !94
  %66 = getelementptr inbounds nuw %struct.dt_geo_map_display_point_t, ptr %65, i32 0, i32 0
  store float %64, ptr %66, align 4, !tbaa !96
  %67 = load ptr, ptr %12, align 8, !tbaa !66
  %68 = getelementptr inbounds nuw %struct.dt_gpx_track_point_t, ptr %67, i32 0, i32 0
  %69 = load double, ptr %68, align 8, !tbaa !81
  %70 = fptrunc reassoc nsz arcp contract afn double %69 to float
  %71 = load ptr, ptr %13, align 8, !tbaa !94
  %72 = getelementptr inbounds nuw %struct.dt_geo_map_display_point_t, ptr %71, i32 0, i32 1
  store float %70, ptr %72, align 4, !tbaa !99
  %73 = load ptr, ptr %6, align 8, !tbaa !77
  %74 = load ptr, ptr %13, align 8, !tbaa !94
  %75 = call ptr @g_list_prepend(ptr noundef %73, ptr noundef %74)
  store ptr %75, ptr %6, align 8, !tbaa !77
  call void @llvm.lifetime.end.p0(i64 8, ptr %13) #10
  store i32 0, ptr %8, align 4
  br label %76

76:                                               ; preds = %59, %57
  call void @llvm.lifetime.end.p0(i64 8, ptr %12) #10
  %77 = load i32, ptr %8, align 4
  switch i32 %77, label %89 [
    i32 0, label %78
  ]

78:                                               ; preds = %76
  br label %79

79:                                               ; preds = %78
  %80 = load ptr, ptr %11, align 8, !tbaa !77
  %81 = icmp ne ptr %80, null
  br i1 %81, label %82, label %86

82:                                               ; preds = %79
  %83 = load ptr, ptr %11, align 8, !tbaa !77
  %84 = getelementptr inbounds nuw %struct._GList, ptr %83, i32 0, i32 1
  %85 = load ptr, ptr %84, align 8, !tbaa !80
  br label %87

86:                                               ; preds = %79
  br label %87

87:                                               ; preds = %86, %82
  %88 = phi ptr [ %85, %82 ], [ null, %86 ]
  store ptr %88, ptr %11, align 8, !tbaa !77
  br label %44

89:                                               ; preds = %76, %47
  call void @llvm.lifetime.end.p0(i64 8, ptr %11) #10
  %90 = load i32, ptr %8, align 4
  switch i32 %90, label %93 [
    i32 2, label %91
  ]

91:                                               ; preds = %89
  %92 = load ptr, ptr %6, align 8, !tbaa !77
  store ptr %92, ptr %3, align 8
  store i32 1, ptr %8, align 4
  br label %93

93:                                               ; preds = %91, %89, %40
  call void @llvm.lifetime.end.p0(i64 8, ptr %10) #10
  call void @llvm.lifetime.end.p0(i64 8, ptr %9) #10
  br label %94

94:                                               ; preds = %93, %25
  call void @llvm.lifetime.end.p0(i64 8, ptr %7) #10
  call void @llvm.lifetime.end.p0(i64 8, ptr %6) #10
  br label %95

95:                                               ; preds = %94, %16
  %96 = load ptr, ptr %3, align 8
  ret ptr %96
}