; Function Attrs: nounwind uwtable
define ptr @dt_gpx_get_trkpts(ptr noundef readonly %0, i32 noundef %1) local_unnamed_addr #0 {
  %3 = icmp eq ptr %0, null
  br i1 %3, label %.loopexit, label %4

4:                                                ; preds = %2
  %5 = getelementptr inbounds nuw i8, ptr %0, i64 8
  %6 = load ptr, ptr %5, align 8, !tbaa !18
  %7 = tail call ptr @g_list_nth(ptr noundef %6, i32 noundef %1) #11
  %.not = icmp eq ptr %7, null
  br i1 %.not, label %.loopexit, label %8

8:                                                ; preds = %4
  %9 = load ptr, ptr %7, align 8, !tbaa !31
  %10 = load ptr, ptr %0, align 8, !tbaa !12
  %11 = getelementptr inbounds nuw i8, ptr %9, i64 32
  %12 = load ptr, ptr %11, align 8, !tbaa !40
  %13 = tail call ptr @g_list_find(ptr noundef %10, ptr noundef %12) #11
  %.not37 = icmp eq ptr %13, null
  br i1 %.not37, label %.loopexit, label %.preheader

.preheader:                                       ; preds = %8, %17
  %.02845 = phi ptr [ %25, %17 ], [ null, %8 ]
  %.03144 = phi ptr [ %27, %17 ], [ %13, %8 ]
  %14 = load ptr, ptr %.03144, align 8, !tbaa !31
  %15 = getelementptr inbounds nuw i8, ptr %14, i64 32
  %16 = load i32, ptr %15, align 8, !tbaa !41
  %.not39 = icmp eq i32 %16, %1
  br i1 %.not39, label %17, label %.loopexit

17:                                               ; preds = %.preheader
  %18 = tail call noalias dereferenceable_or_null(8) ptr @g_malloc0(i64 noundef 8) #12
  %19 = getelementptr inbounds nuw i8, ptr %14, i64 8
  %20 = load double, ptr %19, align 8, !tbaa !35
  %21 = fptrunc reassoc nsz arcp contract afn double %20 to float
  store float %21, ptr %18, align 4, !tbaa !42
  %22 = load double, ptr %14, align 8, !tbaa !32
  %23 = fptrunc reassoc nsz arcp contract afn double %22 to float
  %24 = getelementptr inbounds nuw i8, ptr %18, i64 4
  store float %23, ptr %24, align 4, !tbaa !45
  %25 = tail call ptr @g_list_prepend(ptr noundef %.02845, ptr noundef nonnull %18) #11
  %26 = getelementptr inbounds nuw i8, ptr %.03144, i64 8
  %27 = load ptr, ptr %26, align 8, !tbaa !29
  %.not38 = icmp eq ptr %27, null
  br i1 %.not38, label %.loopexit, label %.preheader

.loopexit:                                        ; preds = %17, %.preheader, %4, %8, %2
  %.0 = phi ptr [ null, %2 ], [ null, %4 ], [ null, %8 ], [ %.02845, %.preheader ], [ %25, %17 ]
  ret ptr %.0
}